; Function Attrs: mustprogress uwtable
define hidden void @_ZN3smt18quantifier_manager3delEP10quantifier(ptr noundef nonnull readonly align 8 captures(none) dereferenceable(13) %0, ptr noundef %1) local_unnamed_addr #4 align 2 {
  %3 = alloca %"struct.obj_map<quantifier, q::quantifier_stat *>::key_data", align 8
  %4 = load ptr, ptr %0, align 8, !tbaa !82
  %5 = getelementptr inbounds nuw i8, ptr %4, i64 16
  %6 = load ptr, ptr %5, align 8, !tbaa !641
  %7 = getelementptr inbounds nuw i8, ptr %6, i64 192
  %8 = load i8, ptr %7, align 8, !tbaa !642, !range !38, !noundef !39
  %9 = trunc nuw i8 %8 to i1
  br i1 %9, label %10, label %_ZN3smt18quantifier_manager3imp3delEP10quantifier.exit

10:                                               ; preds = %2
  %11 = tail call noundef nonnull align 8 dereferenceable(8) ptr @_Z14verbose_streamv()
  tail call void @_ZN3smt18quantifier_manager3imp13display_statsERSoP10quantifier(ptr noundef nonnull align 8 dereferenceable(1172) %4, ptr noundef nonnull align 8 dereferenceable(8) %11, ptr noundef %1)
  br label %_ZN3smt18quantifier_manager3imp3delEP10quantifier.exit

_ZN3smt18quantifier_manager3imp3delEP10quantifier.exit: ; preds = %2, %10
  %12 = getelementptr inbounds nuw i8, ptr %4, i64 1152
  %13 = load ptr, ptr %12, align 8, !tbaa !580
  %14 = getelementptr inbounds i8, ptr %13, i64 -4
  %15 = load i32, ptr %14, align 4, !tbaa !61
  %16 = add i32 %15, -1
  store i32 %16, ptr %14, align 4, !tbaa !61
  %17 = getelementptr inbounds nuw i8, ptr %4, i64 1072
  call void @llvm.lifetime.start.p0(i64 16, ptr nonnull %3) #22
  store ptr %1, ptr %3, align 8, !tbaa !635
  %18 = getelementptr inbounds nuw i8, ptr %3, i64 8
  store ptr null, ptr %18, align 8, !tbaa !639
  call void @_ZN14core_hashtableIN7obj_mapI10quantifierPN1q15quantifier_statEE13obj_map_entryE8obj_hashINS5_8key_dataEE10default_eqIS8_EE6removeERKS8_(ptr noundef nonnull align 8 dereferenceable(24) %17, ptr noundef nonnull align 8 dereferenceable(16) %3)
  call void @llvm.lifetime.end.p0(i64 16, ptr nonnull %3) #22
  ret void
}